; Function Attrs: nounwind sspstrong uwtable
define internal noundef i64 @ossl_x509store_add_crl(i64 noundef returned %0, i64 noundef %1) #0 {
  %3 = tail call ptr @GetX509CRLPtr(i64 noundef %1) #5
  %4 = tail call ptr @rb_check_typeddata(i64 noundef %0, ptr noundef nonnull @ossl_x509store_type) #5
  %.not = icmp eq ptr %4, null
  br i1 %.not, label %5, label %7

5:                                                ; preds = %2
  %6 = load i64, ptr @rb_eRuntimeError, align 8, !tbaa !20
  tail call void (i64, ptr, ...) @ossl_raise(i64 noundef %6, ptr noundef nonnull @.str.2) #7
  unreachable

7:                                                ; preds = %2
  %8 = tail call i32 @X509_STORE_add_crl(ptr noundef nonnull %4, ptr noundef %3) #5
  %.not5 = icmp eq i32 %8, 1
  br i1 %.not5, label %11, label %9

9:                                                ; preds = %7
  %10 = load i64, ptr @eX509StoreError, align 8, !tbaa !20
  tail call void (i64, ptr, ...) @ossl_raise(i64 noundef %10, ptr noundef nonnull @.str.46) #7
  unreachable

11:                                               ; preds = %7
  ret i64 %0
}